target datalayout = "e-m:e-p270:32:32-p271:32:32-p272:64:64-i64:64-i128:128-f80:128-n8:16:32:64-S128"
target triple = "x86_64-pc-linux-gnu"

%"class.google::protobuf::internal::LogMessage" = type { i32, ptr, i32, %"class.std::__cxx11::basic_string" }
%"class.std::__cxx11::basic_string" = type { %"struct.std::__cxx11::basic_string<char>::_Alloc_hider", i64, %union.anon }
%"struct.std::__cxx11::basic_string<char>::_Alloc_hider" = type { ptr }
%union.anon = type { i64, [8 x i8] }
%"class.google::protobuf::internal::LogFinisher" = type { i8 }

@.str = private unnamed_addr constant [42 x i8] c"third_party/protobuf-lite/coded_stream.cc\00", align 1
@.str.15 = private unnamed_addr constant [45 x i8] c"CHECK failed: (str.size()) <= (kuint32max): \00", align 1

; Function Attrs: mustprogress nounwind uwtable
define available_externally noundef ptr @_ZNKSt7__cxx1112basic_stringIcSt11char_traitsIcESaIcEE7_M_dataEv(ptr noundef nonnull align 8 dereferenceable(32) %0) #4 align 2 {
  %2 = alloca ptr, align 8
  store ptr %0, ptr %2, align 8, !tbaa !44
  %3 = load ptr, ptr %2, align 8
  %4 = getelementptr inbounds nuw %"class.std::__cxx11::basic_string", ptr %3, i32 0, i32 0
  %5 = getelementptr inbounds nuw %"struct.std::__cxx11::basic_string<char>::_Alloc_hider", ptr %4, i32 0, i32 0
  %6 = load ptr, ptr %5, align 8, !tbaa !118
  ret ptr %6
}

; Function Attrs: inlinehint mustprogress nounwind uwtable
define linkonce_odr noundef ptr @_ZN6google8protobuf2io17CodedOutputStream15WriteRawToArrayEPKviPh(ptr noundef %0, i32 noundef %1, ptr noundef %2) #8 comdat align 2 {
  %4 = alloca ptr, align 8
  %5 = alloca i32, align 4
  %6 = alloca ptr, align 8
  store ptr %0, ptr %4, align 8, !tbaa !41
  store i32 %1, ptr %5, align 4, !tbaa !18
  store ptr %2, ptr %6, align 8, !tbaa !50
  %7 = load ptr, ptr %6, align 8, !tbaa !50
  %8 = load ptr, ptr %4, align 8, !tbaa !41
  %9 = load i32, ptr %5, align 4, !tbaa !18
  %10 = sext i32 %9 to i64
  call void @llvm.memcpy.p0.p0.i64(ptr align 1 %7, ptr align 1 %8, i64 %10, i1 false)
  %11 = load ptr, ptr %6, align 8, !tbaa !50
  %12 = load i32, ptr %5, align 4, !tbaa !18
  %13 = sext i32 %12 to i64
  %14 = getelementptr inbounds i8, ptr %11, i64 %13
  ret ptr %14
}

; Function Attrs: mustprogress nounwind uwtable
define available_externally noundef ptr @_ZNKSt7__cxx1112basic_stringIcSt11char_traitsIcESaIcEE4dataEv(ptr noundef nonnull align 8 dereferenceable(32) %0) #4 align 2 {
  %2 = alloca ptr, align 8
  store ptr %0, ptr %2, align 8, !tbaa !44
  %3 = load ptr, ptr %2, align 8
  %4 = call noundef ptr @_ZNKSt7__cxx1112basic_stringIcSt11char_traitsIcESaIcEE7_M_dataEv(ptr noundef nonnull align 8 dereferenceable(32) %3)
  ret ptr %4
}

; Function Attrs: alwaysinline mustprogress nounwind uwtable
define linkonce_odr noundef ptr @_ZN6google8protobuf2io19EpsCopyOutputStream12UnsafeVarintIjEEPhT_S4_(i32 noundef %0, ptr noundef %1) #13 comdat align 2 {
  %3 = alloca ptr, align 8
  %4 = alloca i32, align 4
  %5 = alloca ptr, align 8
  store i32 %0, ptr %4, align 4, !tbaa !18
  store ptr %1, ptr %5, align 8, !tbaa !50
  %6 = load i32, ptr %4, align 4, !tbaa !18
  %7 = icmp ult i32 %6, 128
  br i1 %7, label %8, label %15

8:                                                ; preds = %2
  %9 = load i32, ptr %4, align 4, !tbaa !18
  %10 = trunc i32 %9 to i8
  %11 = load ptr, ptr %5, align 8, !tbaa !50
  %12 = getelementptr inbounds i8, ptr %11, i64 0
  store i8 %10, ptr %12, align 1, !tbaa !29
  %13 = load ptr, ptr %5, align 8, !tbaa !50
  %14 = getelementptr inbounds i8, ptr %13, i64 1
  store ptr %14, ptr %3, align 8
  br label %56

15:                                               ; preds = %2
  %16 = load i32, ptr %4, align 4, !tbaa !18
  %17 = or i32 %16, 128
  %18 = trunc i32 %17 to i8
  %19 = load ptr, ptr %5, align 8, !tbaa !50
  %20 = getelementptr inbounds i8, ptr %19, i64 0
  store i8 %18, ptr %20, align 1, !tbaa !29
  %21 = load i32, ptr %4, align 4, !tbaa !18
  %22 = lshr i32 %21, 7
  store i32 %22, ptr %4, align 4, !tbaa !18
  %23 = load i32, ptr %4, align 4, !tbaa !18
  %24 = icmp ult i32 %23, 128
  br i1 %24, label %25, label %32

25:                                               ; preds = %15
  %26 = load i32, ptr %4, align 4, !tbaa !18
  %27 = trunc i32 %26 to i8
  %28 = load ptr, ptr %5, align 8, !tbaa !50
  %29 = getelementptr inbounds i8, ptr %28, i64 1
  store i8 %27, ptr %29, align 1, !tbaa !29
  %30 = load ptr, ptr %5, align 8, !tbaa !50
  %31 = getelementptr inbounds i8, ptr %30, i64 2
  store ptr %31, ptr %3, align 8
  br label %56

32:                                               ; preds = %15
  %33 = load ptr, ptr %5, align 8, !tbaa !50
  %34 = getelementptr inbounds nuw i8, ptr %33, i32 1
  store ptr %34, ptr %5, align 8, !tbaa !50
  br label %35

35:                                               ; preds = %44, %32
  %36 = load i32, ptr %4, align 4, !tbaa !18
  %37 = or i32 %36, 128
  %38 = trunc i32 %37 to i8
  %39 = load ptr, ptr %5, align 8, !tbaa !50
  store i8 %38, ptr %39, align 1, !tbaa !29
  %40 = load i32, ptr %4, align 4, !tbaa !18
  %41 = lshr i32 %40, 7
  store i32 %41, ptr %4, align 4, !tbaa !18
  %42 = load ptr, ptr %5, align 8, !tbaa !50
  %43 = getelementptr inbounds nuw i8, ptr %42, i32 1
  store ptr %43, ptr %5, align 8, !tbaa !50
  br label %44

44:                                               ; preds = %35
  %45 = load i32, ptr %4, align 4, !tbaa !18
  %46 = icmp uge i32 %45, 128
  %47 = zext i1 %46 to i64
  %48 = call i64 @llvm.expect.i64(i64 %47, i64 0)
  %49 = icmp ne i64 %48, 0
  br i1 %49, label %35, label %50, !llvm.loop !146

50:                                               ; preds = %44
  %51 = load i32, ptr %4, align 4, !tbaa !18
  %52 = trunc i32 %51 to i8
  %53 = load ptr, ptr %5, align 8, !tbaa !50
  %54 = getelementptr inbounds nuw i8, ptr %53, i32 1
  store ptr %54, ptr %5, align 8, !tbaa !50
  store i8 %52, ptr %53, align 1, !tbaa !29
  %55 = load ptr, ptr %5, align 8, !tbaa !50
  store ptr %55, ptr %3, align 8
  br label %56

56:                                               ; preds = %50, %25, %8
  %57 = load ptr, ptr %3, align 8
  ret ptr %57
}

; Function Attrs: inlinehint mustprogress uwtable
define linkonce_odr noundef ptr @_ZN6google8protobuf2io17CodedOutputStream18WriteStringToArrayERKNSt7__cxx1112basic_stringIcSt11char_traitsIcESaIcEEEPh(ptr noundef nonnull align 8 dereferenceable(32) %0, ptr noundef %1) #10 comdat align 2 {
  %3 = alloca ptr, align 8
  %4 = alloca ptr, align 8
  store ptr %0, ptr %3, align 8, !tbaa !44
  store ptr %1, ptr %4, align 8, !tbaa !50
  %5 = load ptr, ptr %3, align 8, !tbaa !44
  %6 = call noundef ptr @_ZNKSt7__cxx1112basic_stringIcSt11char_traitsIcESaIcEE4dataEv(ptr noundef nonnull align 8 dereferenceable(32) %5) #3
  %7 = load ptr, ptr %3, align 8, !tbaa !44
  %8 = call noundef i64 @_ZNKSt7__cxx1112basic_stringIcSt11char_traitsIcESaIcEE4sizeEv(ptr noundef nonnull align 8 dereferenceable(32) %7) #3
  %9 = trunc i64 %8 to i32
  %10 = load ptr, ptr %4, align 8, !tbaa !50
  %11 = call noundef ptr @_ZN6google8protobuf2io17CodedOutputStream15WriteRawToArrayEPKviPh(ptr noundef %6, i32 noundef %9, ptr noundef %10)
  ret ptr %11
}

; Function Attrs: inlinehint mustprogress nounwind uwtable
define linkonce_odr noundef ptr @_ZN6google8protobuf2io17CodedOutputStream20WriteVarint32ToArrayEjPh(i32 noundef %0, ptr noundef %1) #8 comdat align 2 {
  %3 = alloca i32, align 4
  %4 = alloca ptr, align 8
  store i32 %0, ptr %3, align 4, !tbaa !18
  store ptr %1, ptr %4, align 8, !tbaa !50
  %5 = load i32, ptr %3, align 4, !tbaa !18
  %6 = load ptr, ptr %4, align 8, !tbaa !50
  %7 = call noundef ptr @_ZN6google8protobuf2io19EpsCopyOutputStream12UnsafeVarintIjEEPhT_S4_(i32 noundef %5, ptr noundef %6)
  ret ptr %7
}

; Function Attrs: mustprogress nounwind uwtable
define available_externally noundef i64 @_ZNKSt7__cxx1112basic_stringIcSt11char_traitsIcESaIcEE4sizeEv(ptr noundef nonnull align 8 dereferenceable(32) %0) #4 align 2 {
  %2 = alloca ptr, align 8
  store ptr %0, ptr %2, align 8, !tbaa !44
  %3 = load ptr, ptr %2, align 8
  %4 = getelementptr inbounds nuw %"class.std::__cxx11::basic_string", ptr %3, i32 0, i32 1
  %5 = load i64, ptr %4, align 8, !tbaa !102
  ret i64 %5
}

; Function Attrs: mustprogress uwtable
define noundef ptr @_ZN6google8protobuf2io17CodedOutputStream26WriteStringWithSizeToArrayERKNSt7__cxx1112basic_stringIcSt11char_traitsIcESaIcEEEPh(ptr noundef nonnull align 8 dereferenceable(32) %0, ptr noundef %1) #5 align 2 personality ptr @__gxx_personality_v0 {
  %3 = alloca ptr, align 8
  %4 = alloca ptr, align 8
  %5 = alloca %"class.google::protobuf::internal::LogMessage", align 8
  %6 = alloca i1, align 1
  %7 = alloca i1, align 1
  %8 = alloca ptr, align 8
  %9 = alloca i32, align 4
  %10 = alloca %"class.google::protobuf::internal::LogFinisher", align 1
  store ptr %0, ptr %3, align 8, !tbaa !44
  store ptr %1, ptr %4, align 8, !tbaa !50
  br label %11

11:                                               ; preds = %27, %2
  br i1 false, label %12, label %43

12:                                               ; preds = %11
  %13 = load ptr, ptr %3, align 8, !tbaa !44
  %14 = call noundef i64 @_ZNKSt7__cxx1112basic_stringIcSt11char_traitsIcESaIcEE4sizeEv(ptr noundef nonnull align 8 dereferenceable(32) %13) #3
  %15 = icmp ule i64 %14, 4294967295
  store i1 false, ptr %6, align 1
  store i1 false, ptr %7, align 1
  call void @llvm.lifetime.start.p0(i64 1, ptr %10) #3
  br i1 %15, label %16, label %17

16:                                               ; preds = %12
  br label %21

17:                                               ; preds = %12
  call void @llvm.lifetime.start.p0(i64 56, ptr %5) #3
  store i1 true, ptr %6, align 1
  call void @_ZN6google8protobuf8internal10LogMessageC1ENS0_8LogLevelEPKci(ptr noundef nonnull align 8 dereferenceable(56) %5, i32 noundef 3, ptr noundef @.str, i32 noundef 949)
  store i1 true, ptr %7, align 1
  %18 = invoke noundef nonnull align 8 dereferenceable(56) ptr @_ZN6google8protobuf8internal10LogMessagelsEPKc(ptr noundef nonnull align 8 dereferenceable(56) %5, ptr noundef @.str.15)
          to label %19 unwind label %28

19:                                               ; preds = %17
  invoke void @_ZN6google8protobuf8internal11LogFinisheraSERNS1_10LogMessageE(ptr noundef nonnull align 1 dereferenceable(1) %10, ptr noundef nonnull align 8 dereferenceable(56) %18)
          to label %20 unwind label %32

20:                                               ; preds = %19
  br label %21

21:                                               ; preds = %20, %16
  call void @llvm.lifetime.end.p0(i64 1, ptr %10) #3
  %22 = load i1, ptr %7, align 1
  br i1 %22, label %23, label %24

23:                                               ; preds = %21
  call void @_ZN6google8protobuf8internal10LogMessageD1Ev(ptr noundef nonnull align 8 dereferenceable(56) %5) #3
  br label %24

24:                                               ; preds = %23, %21
  %25 = load i1, ptr %6, align 1
  br i1 %25, label %26, label %27

26:                                               ; preds = %24
  call void @llvm.lifetime.end.p0(i64 56, ptr %5) #3
  br label %27

27:                                               ; preds = %26, %24
  br label %11, !llvm.loop !112

28:                                               ; preds = %17
  %29 = landingpad { ptr, i32 }
          cleanup
  %30 = extractvalue { ptr, i32 } %29, 0
  store ptr %30, ptr %8, align 8
  %31 = extractvalue { ptr, i32 } %29, 1
  store i32 %31, ptr %9, align 4
  br label %36

32:                                               ; preds = %19
  %33 = landingpad { ptr, i32 }
          cleanup
  %34 = extractvalue { ptr, i32 } %33, 0
  store ptr %34, ptr %8, align 8
  %35 = extractvalue { ptr, i32 } %33, 1
  store i32 %35, ptr %9, align 4
  call void @llvm.lifetime.end.p0(i64 1, ptr %10) #3
  br label %36

36:                                               ; preds = %32, %28
  %37 = load i1, ptr %7, align 1
  br i1 %37, label %38, label %39

38:                                               ; preds = %36
  call void @_ZN6google8protobuf8internal10LogMessageD1Ev(ptr noundef nonnull align 8 dereferenceable(56) %5) #3
  br label %39

39:                                               ; preds = %38, %36
  %40 = load i1, ptr %6, align 1
  br i1 %40, label %41, label %42

41:                                               ; preds = %39
  call void @llvm.lifetime.end.p0(i64 56, ptr %5) #3
  br label %42

42:                                               ; preds = %41, %39
  br label %52

43:                                               ; preds = %11
  %44 = load ptr, ptr %3, align 8, !tbaa !44
  %45 = call noundef i64 @_ZNKSt7__cxx1112basic_stringIcSt11char_traitsIcESaIcEE4sizeEv(ptr noundef nonnull align 8 dereferenceable(32) %44) #3
  %46 = trunc i64 %45 to i32
  %47 = load ptr, ptr %4, align 8, !tbaa !50
  %48 = call noundef ptr @_ZN6google8protobuf2io17CodedOutputStream20WriteVarint32ToArrayEjPh(i32 noundef %46, ptr noundef %47)
  store ptr %48, ptr %4, align 8, !tbaa !50
  %49 = load ptr, ptr %3, align 8, !tbaa !44
  %50 = load ptr, ptr %4, align 8, !tbaa !50
  %51 = call noundef ptr @_ZN6google8protobuf2io17CodedOutputStream18WriteStringToArrayERKNSt7__cxx1112basic_stringIcSt11char_traitsIcESaIcEEEPh(ptr noundef nonnull align 8 dereferenceable(32) %49, ptr noundef %50)
  ret ptr %51

52:                                               ; preds = %42
  %53 = load ptr, ptr %8, align 8
  %54 = load i32, ptr %9, align 4
  %55 = insertvalue { ptr, i32 } poison, ptr %53, 0
  %56 = insertvalue { ptr, i32 } %55, i32 %54, 1
  resume { ptr, i32 } %56
}