; Function Attrs: mustprogress nofree norecurse nosync nounwind memory(readwrite, inaccessiblemem: none) uwtable
define noundef nonnull ptr @_ZN6google8protobuf2io17CodedOutputStream26WriteStringWithSizeToArrayERKNSt7__cxx1112basic_stringIcSt11char_traitsIcESaIcEEEPh(ptr noundef nonnull readonly align 8 captures(none) dereferenceable(32) %0, ptr noundef writeonly initializes((0, 1)) %1) local_unnamed_addr #11 align 2 personality ptr @__gxx_personality_v0 {
  %3 = getelementptr inbounds nuw i8, ptr %0, i64 8
  %4 = load i64, ptr %3, align 8, !tbaa !40
  %5 = trunc i64 %4 to i32
  %6 = icmp ult i32 %5, 128
  %7 = trunc i64 %4 to i8
  br i1 %6, label %8, label %10

8:                                                ; preds = %2
  store i8 %7, ptr %1, align 1, !tbaa !27
  %9 = getelementptr inbounds nuw i8, ptr %1, i64 1
  br label %_ZN6google8protobuf2io17CodedOutputStream20WriteVarint32ToArrayEjPh.exit

10:                                               ; preds = %2
  %11 = or i8 %7, -128
  store i8 %11, ptr %1, align 1, !tbaa !27
  %12 = lshr i32 %5, 7
  %13 = icmp ult i32 %5, 16384
  br i1 %13, label %14, label %18

14:                                               ; preds = %10
  %15 = trunc nuw nsw i32 %12 to i8
  %16 = getelementptr inbounds nuw i8, ptr %1, i64 1
  store i8 %15, ptr %16, align 1, !tbaa !27
  %17 = getelementptr inbounds nuw i8, ptr %1, i64 2
  br label %_ZN6google8protobuf2io17CodedOutputStream20WriteVarint32ToArrayEjPh.exit

18:                                               ; preds = %10
  %19 = getelementptr inbounds nuw i8, ptr %1, i64 1
  br label %20

20:                                               ; preds = %20, %18
  %.020.i.i = phi i32 [ %12, %18 ], [ %23, %20 ]
  %.0.i.i = phi ptr [ %19, %18 ], [ %24, %20 ]
  %21 = trunc i32 %.020.i.i to i8
  %22 = or i8 %21, -128
  store i8 %22, ptr %.0.i.i, align 1, !tbaa !27
  %23 = lshr i32 %.020.i.i, 7
  %24 = getelementptr inbounds nuw i8, ptr %.0.i.i, i64 1
  %25 = icmp samesign ugt i32 %.020.i.i, 16383
  br i1 %25, label %20, label %26, !prof !59, !llvm.loop !67

26:                                               ; preds = %20
  %27 = trunc nuw nsw i32 %23 to i8
  %28 = getelementptr inbounds nuw i8, ptr %.0.i.i, i64 2
  store i8 %27, ptr %24, align 1, !tbaa !27
  br label %_ZN6google8protobuf2io17CodedOutputStream20WriteVarint32ToArrayEjPh.exit

_ZN6google8protobuf2io17CodedOutputStream20WriteVarint32ToArrayEjPh.exit: ; preds = %8, %14, %26
  %.021.i.i = phi ptr [ %9, %8 ], [ %17, %14 ], [ %28, %26 ]
  %29 = load ptr, ptr %0, align 8, !tbaa !36
  %30 = load i64, ptr %3, align 8, !tbaa !40
  %sext.i = shl i64 %30, 32
  %31 = ashr exact i64 %sext.i, 32
  tail call void @llvm.memcpy.p0.p0.i64(ptr nonnull align 1 %.021.i.i, ptr align 1 %29, i64 %31, i1 false)
  %32 = getelementptr inbounds i8, ptr %.021.i.i, i64 %31
  ret ptr %32
}